; Function Attrs: mustprogress uwtable
define hidden void @_Z23install_smt2_extra_cmdsR11cmd_context(ptr noundef nonnull align 8 dereferenceable(896) %0) local_unnamed_addr #3 {
  %2 = tail call noalias noundef ptr @_ZN6memory8allocateEm(i64 noundef 32)
  store ptr getelementptr inbounds nuw inrange(-16, 224) (i8, ptr @_ZTV3cmd, i64 16), ptr %2, align 8, !tbaa !3
  %3 = getelementptr inbounds nuw i8, ptr %2, i64 8
  tail call void @_ZN6symbolC1EPKc(ptr noundef nonnull align 8 dereferenceable(8) %3, ptr noundef nonnull @.str)
  %4 = getelementptr inbounds nuw i8, ptr %2, i64 16
  store i32 0, ptr %4, align 8, !tbaa !6
  %5 = getelementptr inbounds nuw i8, ptr %2, i64 20
  store i32 0, ptr %5, align 4, !tbaa !13
  store ptr getelementptr inbounds nuw inrange(-16, 224) (i8, ptr @_ZTV11include_cmd, i64 16), ptr %2, align 8, !tbaa !3
  %6 = getelementptr inbounds nuw i8, ptr %2, i64 24
  store ptr null, ptr %6, align 8, !tbaa !14
  tail call void @_ZN11cmd_context6insertEP3cmd(ptr noundef nonnull align 8 dereferenceable(896) %0, ptr noundef nonnull %2)
  ret void
}